target datalayout = "e-m:e-p270:32:32-p271:32:32-p272:64:64-i64:64-i128:128-f80:128-n8:16:32:64-S128"
target triple = "x86_64-pc-linux-gnu"

%struct.AVFormatContext = type { ptr, ptr, ptr, ptr, ptr, i32, i32, ptr, i32, ptr, i32, ptr, ptr, i64, i64, i64, i32, i32, i32, i64, i64, ptr, i32, i32, ptr, i32, i32, i32, i32, ptr, i64, i32, i32, %struct.AVIOInterruptCB, i32, i32, i32, i32, i64, i32, i32, i32, i32, i32, i32, i32, i32, i32, i32, i32, i32, i64, i32, i32, i32, i32, i32, ptr, ptr, ptr, ptr, i32, ptr, ptr, ptr, ptr, i32, ptr, ptr, i64, ptr, ptr, ptr, i64 }
%struct.AVIOInterruptCB = type { ptr, ptr }
%struct.MatroskaDemuxContext = type { ptr, ptr, [16 x %struct.MatroskaLevel], i32, i32, i64, i32, i64, double, ptr, ptr, %struct.EbmlBin, %struct.EbmlList, %struct.EbmlList, %struct.EbmlList, %struct.EbmlList, %struct.EbmlList, %struct.EbmlList, i64, ptr, %struct.PacketList, i32, i32, i64, i32, [64 x %struct.MatroskaLevel1Element], i32, %struct.MatroskaCluster, i32, i32, i32 }
%struct.MatroskaLevel = type { i64, i64 }
%struct.EbmlBin = type { i32, ptr, ptr, i64 }
%struct.EbmlList = type { i32, i32, ptr }
%struct.PacketList = type { ptr, ptr }
%struct.MatroskaLevel1Element = type { i64, i32, i32 }
%struct.MatroskaCluster = type { %struct.MatroskaBlock, i64, i64 }
%struct.MatroskaBlock = type { i64, %struct.CountedElement, i64, %struct.EbmlBin, %struct.EbmlList, i64 }
%struct.CountedElement = type { %union.anon.0, i32 }
%union.anon.0 = type { i64 }

@ff_log2_tab = external constant [256 x i8], align 16
@.str.31 = private unnamed_addr constant [60 x i8] c"Max EBML element depth (%d) reached, cannot parse further.\0A\00", align 1

; Function Attrs: alwaysinline nounwind willreturn memory(none) uwtable
define internal i32 @ff_log2_c(i32 noundef %0) #7 {
  %2 = alloca i32, align 4
  %3 = alloca i32, align 4
  store i32 %0, ptr %2, align 4, !tbaa !9
  call void @llvm.lifetime.start.p0(i64 4, ptr %3) #14
  store i32 0, ptr %3, align 4, !tbaa !9
  %4 = load i32, ptr %2, align 4, !tbaa !9
  %5 = and i32 %4, -65536
  %6 = icmp ne i32 %5, 0
  br i1 %6, label %7, label %12

7:                                                ; preds = %1
  %8 = load i32, ptr %2, align 4, !tbaa !9
  %9 = lshr i32 %8, 16
  store i32 %9, ptr %2, align 4, !tbaa !9
  %10 = load i32, ptr %3, align 4, !tbaa !9
  %11 = add nsw i32 %10, 16
  store i32 %11, ptr %3, align 4, !tbaa !9
  br label %12

12:                                               ; preds = %7, %1
  %13 = load i32, ptr %2, align 4, !tbaa !9
  %14 = and i32 %13, 65280
  %15 = icmp ne i32 %14, 0
  br i1 %15, label %16, label %21

16:                                               ; preds = %12
  %17 = load i32, ptr %2, align 4, !tbaa !9
  %18 = lshr i32 %17, 8
  store i32 %18, ptr %2, align 4, !tbaa !9
  %19 = load i32, ptr %3, align 4, !tbaa !9
  %20 = add nsw i32 %19, 8
  store i32 %20, ptr %3, align 4, !tbaa !9
  br label %21

21:                                               ; preds = %16, %12
  %22 = load i32, ptr %2, align 4, !tbaa !9
  %23 = zext i32 %22 to i64
  %24 = getelementptr inbounds nuw [256 x i8], ptr @ff_log2_tab, i64 0, i64 %23
  %25 = load i8, ptr %24, align 1, !tbaa !69
  %26 = zext i8 %25 to i32
  %27 = load i32, ptr %3, align 4, !tbaa !9
  %28 = add nsw i32 %27, %26
  store i32 %28, ptr %3, align 4, !tbaa !9
  %29 = load i32, ptr %3, align 4, !tbaa !9
  call void @llvm.lifetime.end.p0(i64 4, ptr %3) #14
  ret i32 %29
}

; Function Attrs: nounwind uwtable
define internal i32 @matroska_reset_status(ptr noundef %0, i32 noundef %1, i64 noundef %2) #0 {
  %4 = alloca ptr, align 8
  %5 = alloca i32, align 4
  %6 = alloca i64, align 8
  %7 = alloca i64, align 8
  store ptr %0, ptr %4, align 8, !tbaa !27
  store i32 %1, ptr %5, align 4, !tbaa !9
  store i64 %2, ptr %6, align 8, !tbaa !49
  call void @llvm.lifetime.start.p0(i64 8, ptr %7) #14
  store i64 0, ptr %7, align 8, !tbaa !49
  %8 = load i64, ptr %6, align 8, !tbaa !49
  %9 = icmp sge i64 %8, 0
  br i1 %9, label %10, label %22

10:                                               ; preds = %3
  %11 = load ptr, ptr %4, align 8, !tbaa !27
  %12 = getelementptr inbounds nuw %struct.MatroskaDemuxContext, ptr %11, i32 0, i32 1
  %13 = load ptr, ptr %12, align 8, !tbaa !79
  %14 = getelementptr inbounds nuw %struct.AVFormatContext, ptr %13, i32 0, i32 4
  %15 = load ptr, ptr %14, align 8, !tbaa !48
  %16 = load i64, ptr %6, align 8, !tbaa !49
  %17 = call i64 @avio_seek(ptr noundef %15, i64 noundef %16, i32 noundef 0)
  store i64 %17, ptr %7, align 8, !tbaa !49
  %18 = load i64, ptr %7, align 8, !tbaa !49
  %19 = icmp sgt i64 %18, 0
  br i1 %19, label %20, label %21

20:                                               ; preds = %10
  store i64 0, ptr %7, align 8, !tbaa !49
  br label %21

21:                                               ; preds = %20, %10
  br label %29

22:                                               ; preds = %3
  %23 = load ptr, ptr %4, align 8, !tbaa !27
  %24 = getelementptr inbounds nuw %struct.MatroskaDemuxContext, ptr %23, i32 0, i32 1
  %25 = load ptr, ptr %24, align 8, !tbaa !79
  %26 = getelementptr inbounds nuw %struct.AVFormatContext, ptr %25, i32 0, i32 4
  %27 = load ptr, ptr %26, align 8, !tbaa !48
  %28 = call i64 @avio_tell(ptr noundef %27)
  store i64 %28, ptr %6, align 8, !tbaa !49
  br label %29

29:                                               ; preds = %22, %21
  %30 = load i32, ptr %5, align 4, !tbaa !9
  %31 = load ptr, ptr %4, align 8, !tbaa !27
  %32 = getelementptr inbounds nuw %struct.MatroskaDemuxContext, ptr %31, i32 0, i32 4
  store i32 %30, ptr %32, align 4, !tbaa !94
  %33 = load ptr, ptr %4, align 8, !tbaa !27
  %34 = getelementptr inbounds nuw %struct.MatroskaDemuxContext, ptr %33, i32 0, i32 3
  store i32 1, ptr %34, align 8, !tbaa !211
  %35 = load ptr, ptr %4, align 8, !tbaa !27
  %36 = getelementptr inbounds nuw %struct.MatroskaDemuxContext, ptr %35, i32 0, i32 6
  store i32 0, ptr %36, align 8, !tbaa !240
  %37 = load i64, ptr %6, align 8, !tbaa !49
  %38 = load ptr, ptr %4, align 8, !tbaa !27
  %39 = getelementptr inbounds nuw %struct.MatroskaDemuxContext, ptr %38, i32 0, i32 5
  store i64 %37, ptr %39, align 8, !tbaa !141
  %40 = load i32, ptr %5, align 4, !tbaa !9
  %41 = icmp ne i32 %40, 0
  br i1 %41, label %42, label %52

42:                                               ; preds = %29
  %43 = load i32, ptr %5, align 4, !tbaa !9
  %44 = call i32 @ff_log2_c(i32 noundef %43) #16
  %45 = add nsw i32 %44, 7
  %46 = sdiv i32 %45, 8
  %47 = sext i32 %46 to i64
  %48 = load ptr, ptr %4, align 8, !tbaa !27
  %49 = getelementptr inbounds nuw %struct.MatroskaDemuxContext, ptr %48, i32 0, i32 5
  %50 = load i64, ptr %49, align 8, !tbaa !141
  %51 = sub nsw i64 %50, %47
  store i64 %51, ptr %49, align 8, !tbaa !141
  br label %52

52:                                               ; preds = %42, %29
  %53 = load i64, ptr %7, align 8, !tbaa !49
  %54 = trunc i64 %53 to i32
  call void @llvm.lifetime.end.p0(i64 8, ptr %7) #14
  ret i32 %54
}

; Function Attrs: alwaysinline nounwind uwtable
define internal i64 @avio_tell(ptr noundef %0) #3 {
  %2 = alloca ptr, align 8
  store ptr %0, ptr %2, align 8, !tbaa !169
  %3 = load ptr, ptr %2, align 8, !tbaa !169
  %4 = call i64 @avio_seek(ptr noundef %3, i64 noundef 0, i32 noundef 1)
  ret i64 %4
}

; Function Attrs: nounwind uwtable
define internal i32 @matroska_parse_seekhead_entry(ptr noundef %0, i64 noundef %1) #0 {
  %3 = alloca ptr, align 8
  %4 = alloca i64, align 8
  %5 = alloca i32, align 4
  %6 = alloca i64, align 8
  %7 = alloca i32, align 4
  %8 = alloca i32, align 4
  %9 = alloca %struct.MatroskaLevel, align 8
  store ptr %0, ptr %3, align 8, !tbaa !27
  store i64 %1, ptr %4, align 8, !tbaa !49
  call void @llvm.lifetime.start.p0(i64 4, ptr %5) #14
  %10 = load ptr, ptr %3, align 8, !tbaa !27
  %11 = getelementptr inbounds nuw %struct.MatroskaDemuxContext, ptr %10, i32 0, i32 4
  %12 = load i32, ptr %11, align 4, !tbaa !94
  store i32 %12, ptr %5, align 4, !tbaa !9
  call void @llvm.lifetime.start.p0(i64 8, ptr %6) #14
  %13 = load ptr, ptr %3, align 8, !tbaa !27
  %14 = getelementptr inbounds nuw %struct.MatroskaDemuxContext, ptr %13, i32 0, i32 1
  %15 = load ptr, ptr %14, align 8, !tbaa !79
  %16 = getelementptr inbounds nuw %struct.AVFormatContext, ptr %15, i32 0, i32 4
  %17 = load ptr, ptr %16, align 8, !tbaa !48
  %18 = call i64 @avio_tell(ptr noundef %17)
  store i64 %18, ptr %6, align 8, !tbaa !49
  call void @llvm.lifetime.start.p0(i64 4, ptr %7) #14
  store i32 0, ptr %7, align 4, !tbaa !9
  call void @llvm.lifetime.start.p0(i64 4, ptr %8) #14
  %19 = load ptr, ptr %3, align 8, !tbaa !27
  %20 = getelementptr inbounds nuw %struct.MatroskaDemuxContext, ptr %19, i32 0, i32 1
  %21 = load ptr, ptr %20, align 8, !tbaa !79
  %22 = getelementptr inbounds nuw %struct.AVFormatContext, ptr %21, i32 0, i32 4
  %23 = load ptr, ptr %22, align 8, !tbaa !48
  %24 = load i64, ptr %4, align 8, !tbaa !49
  %25 = call i64 @avio_seek(ptr noundef %23, i64 noundef %24, i32 noundef 0)
  %26 = load i64, ptr %4, align 8, !tbaa !49
  %27 = icmp eq i64 %25, %26
  br i1 %27, label %28, label %61

28:                                               ; preds = %2
  %29 = load ptr, ptr %3, align 8, !tbaa !27
  %30 = getelementptr inbounds nuw %struct.MatroskaDemuxContext, ptr %29, i32 0, i32 3
  %31 = load i32, ptr %30, align 8, !tbaa !211
  %32 = icmp eq i32 %31, 16
  br i1 %32, label %33, label %37

33:                                               ; preds = %28
  %34 = load ptr, ptr %3, align 8, !tbaa !27
  %35 = getelementptr inbounds nuw %struct.MatroskaDemuxContext, ptr %34, i32 0, i32 1
  %36 = load ptr, ptr %35, align 8, !tbaa !79
  call void (ptr, i32, ptr, ...) @av_log(ptr noundef %36, i32 noundef 32, ptr noundef @.str.31, i32 noundef 16)
  store i32 -1094995529, ptr %7, align 4, !tbaa !9
  br label %60

37:                                               ; preds = %28
  %38 = load ptr, ptr %3, align 8, !tbaa !27
  %39 = getelementptr inbounds nuw %struct.MatroskaDemuxContext, ptr %38, i32 0, i32 2
  %40 = load ptr, ptr %3, align 8, !tbaa !27
  %41 = getelementptr inbounds nuw %struct.MatroskaDemuxContext, ptr %40, i32 0, i32 3
  %42 = load i32, ptr %41, align 8, !tbaa !211
  %43 = sext i32 %42 to i64
  %44 = getelementptr inbounds [16 x %struct.MatroskaLevel], ptr %39, i64 0, i64 %43
  %45 = getelementptr inbounds nuw %struct.MatroskaLevel, ptr %9, i32 0, i32 0
  store i64 0, ptr %45, align 8, !tbaa !212
  %46 = getelementptr inbounds nuw %struct.MatroskaLevel, ptr %9, i32 0, i32 1
  store i64 -1, ptr %46, align 8, !tbaa !214
  call void @llvm.memcpy.p0.p0.i64(ptr align 8 %44, ptr align 8 %9, i64 16, i1 false), !tbaa.struct !215
  %47 = load ptr, ptr %3, align 8, !tbaa !27
  %48 = getelementptr inbounds nuw %struct.MatroskaDemuxContext, ptr %47, i32 0, i32 3
  %49 = load i32, ptr %48, align 8, !tbaa !211
  %50 = add nsw i32 %49, 1
  store i32 %50, ptr %48, align 8, !tbaa !211
  %51 = load ptr, ptr %3, align 8, !tbaa !27
  %52 = getelementptr inbounds nuw %struct.MatroskaDemuxContext, ptr %51, i32 0, i32 4
  store i32 0, ptr %52, align 4, !tbaa !94
  %53 = load ptr, ptr %3, align 8, !tbaa !27
  %54 = load ptr, ptr %3, align 8, !tbaa !27
  %55 = call i32 @ebml_parse(ptr noundef %53, ptr noundef @matroska_segment, ptr noundef %54)
  store i32 %55, ptr %7, align 4, !tbaa !9
  %56 = load i32, ptr %7, align 4, !tbaa !9
  %57 = icmp eq i32 %56, 3
  br i1 %57, label %58, label %59

58:                                               ; preds = %37
  store i32 -541478725, ptr %7, align 4, !tbaa !9
  br label %59

59:                                               ; preds = %58, %37
  br label %60

60:                                               ; preds = %59, %33
  br label %61

61:                                               ; preds = %60, %2
  %62 = load ptr, ptr %3, align 8, !tbaa !27
  %63 = load i32, ptr %5, align 4, !tbaa !9
  %64 = load i64, ptr %6, align 8, !tbaa !49
  %65 = call i32 @matroska_reset_status(ptr noundef %62, i32 noundef %63, i64 noundef %64)
  store i32 %65, ptr %8, align 4, !tbaa !9
  %66 = load i32, ptr %7, align 4, !tbaa !9
  %67 = icmp sge i32 %66, 0
  br i1 %67, label %68, label %70

68:                                               ; preds = %61
  %69 = load i32, ptr %8, align 4, !tbaa !9
  store i32 %69, ptr %7, align 4, !tbaa !9
  br label %70

70:                                               ; preds = %68, %61
  %71 = load i32, ptr %7, align 4, !tbaa !9
  call void @llvm.lifetime.end.p0(i64 4, ptr %8) #14
  call void @llvm.lifetime.end.p0(i64 4, ptr %7) #14
  call void @llvm.lifetime.end.p0(i64 8, ptr %6) #14
  call void @llvm.lifetime.end.p0(i64 4, ptr %5) #14
  ret i32 %71
}