; Function Attrs: nounwind uwtable
define internal fastcc i32 @matroska_parse_seekhead_entry(ptr noundef %0, i64 noundef %1) unnamed_addr #0 {
  %3 = getelementptr inbounds nuw i8, ptr %0, i64 276
  %4 = load i32, ptr %3, align 4, !tbaa !113
  %5 = getelementptr inbounds nuw i8, ptr %0, i64 8
  %6 = load ptr, ptr %5, align 8, !tbaa !58
  %7 = getelementptr inbounds nuw i8, ptr %6, i64 32
  %8 = load ptr, ptr %7, align 8, !tbaa !43
  %9 = tail call i64 @avio_seek(ptr noundef %8, i64 noundef 0, i32 noundef 1) #15
  %10 = load ptr, ptr %5, align 8, !tbaa !58
  %11 = getelementptr inbounds nuw i8, ptr %10, i64 32
  %12 = load ptr, ptr %11, align 8, !tbaa !43
  %13 = tail call i64 @avio_seek(ptr noundef %12, i64 noundef %1, i32 noundef 0) #15
  %14 = icmp eq i64 %13, %1
  br i1 %14, label %15, label %28

15:                                               ; preds = %2
  %16 = getelementptr inbounds nuw i8, ptr %0, i64 272
  %17 = load i32, ptr %16, align 8, !tbaa !114
  %18 = icmp eq i32 %17, 16
  br i1 %18, label %19, label %21

19:                                               ; preds = %15
  %20 = load ptr, ptr %5, align 8, !tbaa !58
  tail call void (ptr, i32, ptr, ...) @av_log(ptr noundef %20, i32 noundef 32, ptr noundef nonnull @.str.31, i32 noundef 16) #15
  br label %28

21:                                               ; preds = %15
  %22 = getelementptr inbounds nuw i8, ptr %0, i64 16
  %23 = sext i32 %17 to i64
  %24 = getelementptr inbounds [16 x %struct.MatroskaLevel], ptr %22, i64 0, i64 %23
  store i64 0, ptr %24, align 8, !tbaa !61
  %.sroa.2.0..sroa_idx = getelementptr inbounds nuw i8, ptr %24, i64 8
  store i64 -1, ptr %.sroa.2.0..sroa_idx, align 8, !tbaa !61
  %25 = add nsw i32 %17, 1
  store i32 %25, ptr %16, align 8, !tbaa !114
  store i32 0, ptr %3, align 4, !tbaa !113
  %26 = tail call fastcc i32 @ebml_parse(ptr noundef nonnull %0, ptr noundef nonnull @matroska_segment, ptr noundef nonnull %0)
  %27 = icmp eq i32 %26, 3
  %spec.store.select = select i1 %27, i32 -541478725, i32 %26
  br label %28

28:                                               ; preds = %19, %21, %2
  %.0 = phi i32 [ -1094995529, %19 ], [ %spec.store.select, %21 ], [ 0, %2 ]
  %29 = icmp sgt i64 %9, -1
  %30 = load ptr, ptr %5, align 8, !tbaa !58
  %31 = getelementptr inbounds nuw i8, ptr %30, i64 32
  %32 = load ptr, ptr %31, align 8, !tbaa !43
  br i1 %29, label %33, label %36

33:                                               ; preds = %28
  %34 = tail call i64 @avio_seek(ptr noundef %32, i64 noundef %9, i32 noundef 0) #15
  %spec.store.select.i = tail call i64 @llvm.smin.i64(i64 %34, i64 0)
  %35 = trunc i64 %spec.store.select.i to i32
  br label %38

36:                                               ; preds = %28
  %37 = tail call i64 @avio_seek(ptr noundef %32, i64 noundef 0, i32 noundef 1) #15
  br label %38

38:                                               ; preds = %36, %33
  %.014.i = phi i64 [ %9, %33 ], [ %37, %36 ]
  %.0.i = phi i32 [ %35, %33 ], [ 0, %36 ]
  store i32 %4, ptr %3, align 4, !tbaa !113
  %39 = getelementptr inbounds nuw i8, ptr %0, i64 272
  store i32 1, ptr %39, align 8, !tbaa !114
  %40 = getelementptr inbounds nuw i8, ptr %0, i64 288
  store i32 0, ptr %40, align 8, !tbaa !115
  %.not.i = icmp eq i32 %4, 0
  br i1 %.not.i, label %matroska_reset_status.exit, label %41

41:                                               ; preds = %38
  %.not.i.i = icmp ult i32 %4, 65536
  %42 = lshr i32 %4, 16
  %spec.select.i.i = select i1 %.not.i.i, i32 %4, i32 %42
  %spec.select12.i.i = select i1 %.not.i.i, i32 0, i32 16
  %.not11.i.i = icmp samesign ult i32 %spec.select.i.i, 256
  %43 = lshr i32 %spec.select.i.i, 8
  %44 = or disjoint i32 %spec.select12.i.i, 8
  %.110.i.i = select i1 %.not11.i.i, i32 %spec.select.i.i, i32 %43
  %.1.i.i = select i1 %.not11.i.i, i32 %spec.select12.i.i, i32 %44
  %45 = zext nneg i32 %.110.i.i to i64
  %46 = getelementptr inbounds nuw [256 x i8], ptr @ff_log2_tab, i64 0, i64 %45
  %47 = load i8, ptr %46, align 1, !tbaa !119
  %48 = zext i8 %47 to i32
  %49 = or disjoint i32 %.1.i.i, 7
  %.lhs.trunc.i = add nuw nsw i32 %49, %48
  %.zext.i = lshr i32 %.lhs.trunc.i, 3
  %50 = zext nneg i32 %.zext.i to i64
  %51 = sub nsw i64 %.014.i, %50
  br label %matroska_reset_status.exit

matroska_reset_status.exit:                       ; preds = %38, %41
  %storemerge.i = phi i64 [ %51, %41 ], [ %.014.i, %38 ]
  %52 = getelementptr inbounds nuw i8, ptr %0, i64 280
  store i64 %storemerge.i, ptr %52, align 8, !tbaa !116
  %53 = icmp slt i32 %.0, 0
  %spec.select = select i1 %53, i32 %.0, i32 %.0.i
  ret i32 %spec.select
}